target datalayout = "e-m:e-p270:32:32-p271:32:32-p272:64:64-i64:64-i128:128-f80:128-n8:16:32:64-S128"
target triple = "x86_64-pc-linux-gnu"

; Function Attrs: mustprogress nounwind uwtable
define hidden noundef i64 @_ZN5boost7atomics6detail20find_address_genericEPVKvPKS3_m(ptr noundef %0, ptr noundef %1, i64 noundef %2) #0 {
  %4 = alloca i64, align 8
  %5 = alloca ptr, align 8
  %6 = alloca ptr, align 8
  %7 = alloca i64, align 8
  %8 = alloca i64, align 8
  %9 = alloca i32, align 4
  store ptr %0, ptr %5, align 8, !tbaa !3
  store ptr %1, ptr %6, align 8, !tbaa !3
  store i64 %2, ptr %7, align 8, !tbaa !7
  call void @llvm.lifetime.start.p0(i64 8, ptr %8) #14
  store i64 0, ptr %8, align 8, !tbaa !7
  br label %10

10:                                               ; preds = %25, %3
  %11 = load i64, ptr %8, align 8, !tbaa !7
  %12 = load i64, ptr %7, align 8, !tbaa !7
  %13 = icmp ult i64 %11, %12
  br i1 %13, label %15, label %14

14:                                               ; preds = %10
  store i32 2, ptr %9, align 4
  br label %28

15:                                               ; preds = %10
  %16 = load ptr, ptr %6, align 8, !tbaa !3
  %17 = load i64, ptr %8, align 8, !tbaa !7
  %18 = getelementptr inbounds nuw ptr, ptr %16, i64 %17
  %19 = load ptr, ptr %18, align 8, !tbaa !3
  %20 = load ptr, ptr %5, align 8, !tbaa !3
  %21 = icmp eq ptr %19, %20
  br i1 %21, label %22, label %24

22:                                               ; preds = %15
  %23 = load i64, ptr %8, align 8, !tbaa !7
  store i64 %23, ptr %4, align 8
  store i32 1, ptr %9, align 4
  br label %28

24:                                               ; preds = %15
  br label %25

25:                                               ; preds = %24
  %26 = load i64, ptr %8, align 8, !tbaa !7
  %27 = add i64 %26, 1
  store i64 %27, ptr %8, align 8, !tbaa !7
  br label %10, !llvm.loop !9

28:                                               ; preds = %22, %14
  call void @llvm.lifetime.end.p0(i64 8, ptr %8) #14
  %29 = load i32, ptr %9, align 4
  switch i32 %29, label %34 [
    i32 2, label %30
    i32 1, label %32
  ]

30:                                               ; preds = %28
  %31 = load i64, ptr %7, align 8, !tbaa !7
  store i64 %31, ptr %4, align 8
  br label %32

32:                                               ; preds = %30, %28
  %33 = load i64, ptr %4, align 8
  ret i64 %33

34:                                               ; preds = %28
  unreachable
}