; Function Attrs: mustprogress nofree norecurse nosync nounwind willreturn memory(argmem: read) uwtable
define hidden noundef i64 @_ZN5boost7atomics6detail20find_address_genericEPVKvPKS3_m(ptr noundef readnone %0, ptr nocapture noundef readonly %1, i64 noundef %2) #0 {
  %.not11.not = icmp eq i64 %2, 0
  br i1 %.not11.not, label %._crit_edge, label %.lr.ph

.lr.ph:                                           ; preds = %3, %7
  %.0912 = phi i64 [ %8, %7 ], [ 0, %3 ]
  %4 = getelementptr inbounds nuw ptr, ptr %1, i64 %.0912
  %5 = load ptr, ptr %4, align 8, !tbaa !3
  %6 = icmp eq ptr %5, %0
  br i1 %6, label %._crit_edge, label %7

7:                                                ; preds = %.lr.ph
  %8 = add nuw i64 %.0912, 1
  %exitcond.not = icmp eq i64 %8, %2
  br i1 %exitcond.not, label %._crit_edge, label %.lr.ph, !llvm.loop !7

._crit_edge:                                      ; preds = %7, %.lr.ph, %3
  %.09.lcssa = phi i64 [ 0, %3 ], [ %.0912, %.lr.ph ], [ %2, %7 ]
  %spec.select = tail call i64 @llvm.umin.i64(i64 %.09.lcssa, i64 %2)
  ret i64 %spec.select
}